target datalayout = "e-m:e-p270:32:32-p271:32:32-p272:64:64-i64:64-i128:128-f80:128-n8:16:32:64-S128"
target triple = "x86_64-unknown-linux-gnu"

%struct.sdshdr8 = type { i8, i8, i8, [0 x i8] }
%struct.sdshdr16 = type <{ i16, i16, i8, [0 x i8] }>
%struct.sdshdr32 = type <{ i32, i32, i8, [0 x i8] }>
%struct.sdshdr64 = type <{ i64, i64, i8, [0 x i8] }>
%struct.rewriteConfigState = type { ptr, ptr, i32, ptr, i32, i32 }

@.str.105 = private unnamed_addr constant [2 x i8] c" \00", align 1

; Function Attrs: nounwind uwtable
define internal i64 @sdslen(ptr noundef %s) #0 {
entry:
  %retval = alloca i64, align 8
  %s.addr = alloca ptr, align 8
  %flags = alloca i8, align 1
  store ptr %s, ptr %s.addr, align 8
  %0 = load ptr, ptr %s.addr, align 8
  %arrayidx = getelementptr inbounds i8, ptr %0, i64 -1
  %1 = load i8, ptr %arrayidx, align 1
  store i8 %1, ptr %flags, align 1
  %2 = load i8, ptr %flags, align 1
  %conv = zext i8 %2 to i32
  %and = and i32 %conv, 7
  switch i32 %and, label %sw.epilog [
    i32 0, label %sw.bb
    i32 1, label %sw.bb3
    i32 2, label %sw.bb5
    i32 3, label %sw.bb9
    i32 4, label %sw.bb13
  ]

sw.bb:                                            ; preds = %entry
  %3 = load i8, ptr %flags, align 1
  %conv1 = zext i8 %3 to i32
  %shr = ashr i32 %conv1, 3
  %conv2 = sext i32 %shr to i64
  store i64 %conv2, ptr %retval, align 8
  br label %return

sw.bb3:                                           ; preds = %entry
  %4 = load ptr, ptr %s.addr, align 8
  %add.ptr = getelementptr inbounds i8, ptr %4, i64 -3
  %len = getelementptr inbounds %struct.sdshdr8, ptr %add.ptr, i32 0, i32 0
  %5 = load i8, ptr %len, align 1
  %conv4 = zext i8 %5 to i64
  store i64 %conv4, ptr %retval, align 8
  br label %return

sw.bb5:                                           ; preds = %entry
  %6 = load ptr, ptr %s.addr, align 8
  %add.ptr6 = getelementptr inbounds i8, ptr %6, i64 -5
  %len7 = getelementptr inbounds %struct.sdshdr16, ptr %add.ptr6, i32 0, i32 0
  %7 = load i16, ptr %len7, align 1
  %conv8 = zext i16 %7 to i64
  store i64 %conv8, ptr %retval, align 8
  br label %return

sw.bb9:                                           ; preds = %entry
  %8 = load ptr, ptr %s.addr, align 8
  %add.ptr10 = getelementptr inbounds i8, ptr %8, i64 -9
  %len11 = getelementptr inbounds %struct.sdshdr32, ptr %add.ptr10, i32 0, i32 0
  %9 = load i32, ptr %len11, align 1
  %conv12 = zext i32 %9 to i64
  store i64 %conv12, ptr %retval, align 8
  br label %return

sw.bb13:                                          ; preds = %entry
  %10 = load ptr, ptr %s.addr, align 8
  %add.ptr14 = getelementptr inbounds i8, ptr %10, i64 -17
  %len15 = getelementptr inbounds %struct.sdshdr64, ptr %add.ptr14, i32 0, i32 0
  %11 = load i64, ptr %len15, align 1
  store i64 %11, ptr %retval, align 8
  br label %return

sw.epilog:                                        ; preds = %entry
  store i64 0, ptr %retval, align 8
  br label %return

return:                                           ; preds = %sw.epilog, %sw.bb13, %sw.bb9, %sw.bb5, %sw.bb3, %sw.bb
  %12 = load i64, ptr %retval, align 8
  ret i64 %12
}

; Function Attrs: nounwind uwtable
define dso_local void @rewriteConfigMarkAsProcessed(ptr noundef %state, ptr noundef %option) #0 {
entry:
  %state.addr = alloca ptr, align 8
  %option.addr = alloca ptr, align 8
  %opt = alloca ptr, align 8
  store ptr %state, ptr %state.addr, align 8
  store ptr %option, ptr %option.addr, align 8
  %0 = load ptr, ptr %option.addr, align 8
  %call = call ptr @sdsnew(ptr noundef %0)
  store ptr %call, ptr %opt, align 8
  %1 = load ptr, ptr %state.addr, align 8
  %rewritten = getelementptr inbounds %struct.rewriteConfigState, ptr %1, i32 0, i32 1
  %2 = load ptr, ptr %rewritten, align 8
  %3 = load ptr, ptr %opt, align 8
  %call1 = call i32 @dictAdd(ptr noundef %2, ptr noundef %3, ptr noundef null)
  %cmp = icmp ne i32 %call1, 0
  br i1 %cmp, label %if.then, label %if.end

if.then:                                          ; preds = %entry
  %4 = load ptr, ptr %opt, align 8
  call void @sdsfree(ptr noundef %4)
  br label %if.end

if.end:                                           ; preds = %if.then, %entry
  ret void
}

; Function Attrs: nounwind uwtable
define dso_local void @rewriteConfigSdsOption(ptr noundef %state, ptr noundef %option, ptr noundef %value, ptr noundef %defvalue) #0 {
entry:
  %state.addr = alloca ptr, align 8
  %option.addr = alloca ptr, align 8
  %value.addr = alloca ptr, align 8
  %defvalue.addr = alloca ptr, align 8
  %force = alloca i32, align 4
  %line = alloca ptr, align 8
  store ptr %state, ptr %state.addr, align 8
  store ptr %option, ptr %option.addr, align 8
  store ptr %value, ptr %value.addr, align 8
  store ptr %defvalue, ptr %defvalue.addr, align 8
  store i32 1, ptr %force, align 4
  %0 = load ptr, ptr %value.addr, align 8
  %cmp = icmp eq ptr %0, null
  br i1 %cmp, label %if.then, label %if.end

if.then:                                          ; preds = %entry
  %1 = load ptr, ptr %state.addr, align 8
  %2 = load ptr, ptr %option.addr, align 8
  call void @rewriteConfigMarkAsProcessed(ptr noundef %1, ptr noundef %2)
  br label %return

if.end:                                           ; preds = %entry
  %3 = load ptr, ptr %defvalue.addr, align 8
  %tobool = icmp ne ptr %3, null
  br i1 %tobool, label %land.lhs.true, label %if.end3

land.lhs.true:                                    ; preds = %if.end
  %4 = load ptr, ptr %value.addr, align 8
  %5 = load ptr, ptr %defvalue.addr, align 8
  %call = call i32 @strcmp(ptr noundef %4, ptr noundef %5) #10
  %cmp1 = icmp eq i32 %call, 0
  br i1 %cmp1, label %if.then2, label %if.end3

if.then2:                                         ; preds = %land.lhs.true
  store i32 0, ptr %force, align 4
  br label %if.end3

if.end3:                                          ; preds = %if.then2, %land.lhs.true, %if.end
  %6 = load ptr, ptr %option.addr, align 8
  %call4 = call ptr @sdsnew(ptr noundef %6)
  store ptr %call4, ptr %line, align 8
  %7 = load ptr, ptr %line, align 8
  %call5 = call ptr @sdscatlen(ptr noundef %7, ptr noundef @.str.105, i64 noundef 1)
  store ptr %call5, ptr %line, align 8
  %8 = load ptr, ptr %line, align 8
  %9 = load ptr, ptr %value.addr, align 8
  %10 = load ptr, ptr %value.addr, align 8
  %call6 = call i64 @sdslen(ptr noundef %10)
  %call7 = call ptr @sdscatrepr(ptr noundef %8, ptr noundef %9, i64 noundef %call6)
  store ptr %call7, ptr %line, align 8
  %11 = load ptr, ptr %state.addr, align 8
  %12 = load ptr, ptr %option.addr, align 8
  %13 = load ptr, ptr %line, align 8
  %14 = load i32, ptr %force, align 4
  %call8 = call i32 @rewriteConfigRewriteLine(ptr noundef %11, ptr noundef %12, ptr noundef %13, i32 noundef %14)
  br label %return

return:                                           ; preds = %if.end3, %if.then
  ret void
}