; Function Attrs: nounwind uwtable
define dso_local void @rewriteConfigSdsOption(ptr nocapture noundef %state, ptr noundef %option, ptr noundef %value, ptr noundef readonly %defvalue) local_unnamed_addr #2 {
entry:
  %cmp = icmp eq ptr %value, null
  br i1 %cmp, label %if.then, label %if.end

if.then:                                          ; preds = %entry
  %call.i = tail call ptr @sdsnew(ptr noundef %option) #24
  %rewritten.i = getelementptr inbounds i8, ptr %state, i64 8
  %0 = load ptr, ptr %rewritten.i, align 8
  %call1.i = tail call i32 @dictAdd(ptr noundef %0, ptr noundef %call.i, ptr noundef null) #24
  %cmp.not.i = icmp eq i32 %call1.i, 0
  br i1 %cmp.not.i, label %return, label %if.then.i

if.then.i:                                        ; preds = %if.then
  tail call void @sdsfree(ptr noundef %call.i) #24
  br label %return

if.end:                                           ; preds = %entry
  %tobool.not = icmp eq ptr %defvalue, null
  br i1 %tobool.not, label %if.end3, label %land.lhs.true

land.lhs.true:                                    ; preds = %if.end
  %call = tail call i32 @strcmp(ptr noundef nonnull dereferenceable(1) %value, ptr noundef nonnull dereferenceable(1) %defvalue) #23
  %cmp1 = icmp ne i32 %call, 0
  %spec.select = zext i1 %cmp1 to i32
  br label %if.end3

if.end3:                                          ; preds = %land.lhs.true, %if.end
  %force.0 = phi i32 [ 1, %if.end ], [ %spec.select, %land.lhs.true ]
  %call4 = tail call ptr @sdsnew(ptr noundef %option) #24
  %call5 = tail call ptr @sdscatlen(ptr noundef %call4, ptr noundef nonnull @.str.105, i64 noundef 1) #24
  %arrayidx.i = getelementptr inbounds i8, ptr %value, i64 -1
  %1 = load i8, ptr %arrayidx.i, align 1
  %conv.i = zext i8 %1 to i32
  %and.i = and i32 %conv.i, 7
  switch i32 %and.i, label %sdslen.exit [
    i32 0, label %sw.bb.i
    i32 1, label %sw.bb3.i
    i32 2, label %sw.bb5.i
    i32 3, label %sw.bb9.i
    i32 4, label %sw.bb13.i
  ]

sw.bb.i:                                          ; preds = %if.end3
  %shr.i = lshr i32 %conv.i, 3
  %conv2.i = zext nneg i32 %shr.i to i64
  br label %sdslen.exit

sw.bb3.i:                                         ; preds = %if.end3
  %add.ptr.i = getelementptr inbounds i8, ptr %value, i64 -3
  %2 = load i8, ptr %add.ptr.i, align 1
  %conv4.i = zext i8 %2 to i64
  br label %sdslen.exit

sw.bb5.i:                                         ; preds = %if.end3
  %add.ptr6.i = getelementptr inbounds i8, ptr %value, i64 -5
  %3 = load i16, ptr %add.ptr6.i, align 1
  %conv8.i = zext i16 %3 to i64
  br label %sdslen.exit

sw.bb9.i:                                         ; preds = %if.end3
  %add.ptr10.i = getelementptr inbounds i8, ptr %value, i64 -9
  %4 = load i32, ptr %add.ptr10.i, align 1
  %conv12.i = zext i32 %4 to i64
  br label %sdslen.exit

sw.bb13.i:                                        ; preds = %if.end3
  %add.ptr14.i = getelementptr inbounds i8, ptr %value, i64 -17
  %5 = load i64, ptr %add.ptr14.i, align 1
  br label %sdslen.exit

sdslen.exit:                                      ; preds = %if.end3, %sw.bb.i, %sw.bb3.i, %sw.bb5.i, %sw.bb9.i, %sw.bb13.i
  %retval.0.i = phi i64 [ %5, %sw.bb13.i ], [ %conv12.i, %sw.bb9.i ], [ %conv8.i, %sw.bb5.i ], [ %conv4.i, %sw.bb3.i ], [ %conv2.i, %sw.bb.i ], [ 0, %if.end3 ]
  %call7 = tail call ptr @sdscatrepr(ptr noundef %call5, ptr noundef nonnull %value, i64 noundef %retval.0.i) #24
  %call8 = tail call i32 @rewriteConfigRewriteLine(ptr noundef %state, ptr noundef %option, ptr noundef %call7, i32 noundef %force.0), !range !30
  br label %return

return:                                           ; preds = %if.then.i, %if.then, %sdslen.exit
  ret void
}